target datalayout = "e-m:e-p270:32:32-p271:32:32-p272:64:64-i64:64-i128:128-f80:128-n8:16:32:64-S128"
target triple = "x86_64-pc-linux-gnu"

%"class.testing::internal::MutexBase" = type { %union.pthread_mutex_t, i8, i64 }
%union.pthread_mutex_t = type { %struct.__pthread_mutex_s }
%struct.__pthread_mutex_s = type { i32, i32, i32, i32, i32, i16, i16, %struct.__pthread_internal_list }
%struct.__pthread_internal_list = type { ptr, ptr }
%"class.testing::internal::GTestMutexLock" = type { ptr }
%"class.std::vector.234" = type { %"struct.std::_Vector_base.235" }
%"struct.std::_Vector_base.235" = type { %"struct.std::_Vector_base<const void *, std::allocator<const void *>>::_Vector_impl" }
%"struct.std::_Vector_base<const void *, std::allocator<const void *>>::_Vector_impl" = type { %"struct.std::_Vector_base<const void *, std::allocator<const void *>>::_Vector_impl_data" }
%"struct.std::_Vector_base<const void *, std::allocator<const void *>>::_Vector_impl_data" = type { ptr, ptr, ptr }
%"class.testing::internal::UntypedFunctionMockerBase" = type { ptr, ptr, ptr, %"class.std::vector.234", %"class.std::vector.262" }
%"class.std::vector.262" = type { %"struct.std::_Vector_base.263" }
%"struct.std::_Vector_base.263" = type { %"struct.std::_Vector_base<std::shared_ptr<testing::internal::ExpectationBase>, std::allocator<std::shared_ptr<testing::internal::ExpectationBase>>>::_Vector_impl" }
%"struct.std::_Vector_base<std::shared_ptr<testing::internal::ExpectationBase>, std::allocator<std::shared_ptr<testing::internal::ExpectationBase>>>::_Vector_impl" = type { %"struct.std::_Vector_base<std::shared_ptr<testing::internal::ExpectationBase>, std::allocator<std::shared_ptr<testing::internal::ExpectationBase>>>::_Vector_impl_data" }
%"struct.std::_Vector_base<std::shared_ptr<testing::internal::ExpectationBase>, std::allocator<std::shared_ptr<testing::internal::ExpectationBase>>>::_Vector_impl_data" = type { ptr, ptr, ptr }

@_ZN7testing8internal13g_gmock_mutexE = dso_local global %"class.testing::internal::MutexBase" zeroinitializer, align 8

; Function Attrs: mustprogress nounwind uwtable
define linkonce_odr hidden void @_ZN7testing8internal14GTestMutexLockD2Ev(ptr noundef nonnull align 8 dereferenceable(8) %0) unnamed_addr #6 comdat align 2 personality ptr @__gxx_personality_v0 {
  %2 = alloca ptr, align 8
  store ptr %0, ptr %2, align 8, !tbaa !241
  %3 = load ptr, ptr %2, align 8
  %4 = getelementptr inbounds nuw %"class.testing::internal::GTestMutexLock", ptr %3, i32 0, i32 0
  %5 = load ptr, ptr %4, align 8, !tbaa !245
  invoke void @_ZN7testing8internal9MutexBase6UnlockEv(ptr noundef nonnull align 8 dereferenceable(56) %5)
          to label %6 unwind label %7

6:                                                ; preds = %1
  ret void

7:                                                ; preds = %1
  %8 = landingpad { ptr, i32 }
          catch ptr null
  %9 = extractvalue { ptr, i32 } %8, 0
  call void @__clang_call_terminate(ptr %9) #32
  unreachable
}

; Function Attrs: mustprogress uwtable
define linkonce_odr hidden void @_ZN7testing8internal14GTestMutexLockC2EPNS0_9MutexBaseE(ptr noundef nonnull align 8 dereferenceable(8) %0, ptr noundef %1) unnamed_addr #4 comdat align 2 {
  %3 = alloca ptr, align 8
  %4 = alloca ptr, align 8
  store ptr %0, ptr %3, align 8, !tbaa !241
  store ptr %1, ptr %4, align 8, !tbaa !243
  %5 = load ptr, ptr %3, align 8
  %6 = getelementptr inbounds nuw %"class.testing::internal::GTestMutexLock", ptr %5, i32 0, i32 0
  %7 = load ptr, ptr %4, align 8, !tbaa !243
  store ptr %7, ptr %6, align 8, !tbaa !245
  %8 = getelementptr inbounds nuw %"class.testing::internal::GTestMutexLock", ptr %5, i32 0, i32 0
  %9 = load ptr, ptr %8, align 8, !tbaa !245
  call void @_ZN7testing8internal9MutexBase4LockEv(ptr noundef nonnull align 8 dereferenceable(56) %9)
  ret void
}

; Function Attrs: mustprogress uwtable
define dso_local void @_ZN7testing8internal25UntypedFunctionMockerBase13RegisterOwnerEPKv(ptr noundef nonnull align 8 dereferenceable(72) %0, ptr noundef %1) #4 align 2 {
  %3 = alloca ptr, align 8
  %4 = alloca ptr, align 8
  %5 = alloca %"class.testing::internal::GTestMutexLock", align 8
  store ptr %0, ptr %3, align 8, !tbaa !1061
  store ptr %1, ptr %4, align 8, !tbaa !79
  %6 = load ptr, ptr %3, align 8
  call void @llvm.lifetime.start.p0(i64 8, ptr %5) #3
  call void @_ZN7testing8internal14GTestMutexLockC2EPNS0_9MutexBaseE(ptr noundef nonnull align 8 dereferenceable(8) %5, ptr noundef @_ZN7testing8internal13g_gmock_mutexE)
  %7 = load ptr, ptr %4, align 8, !tbaa !79
  %8 = getelementptr inbounds nuw %"class.testing::internal::UntypedFunctionMockerBase", ptr %6, i32 0, i32 1
  store ptr %7, ptr %8, align 8, !tbaa !1063
  call void @_ZN7testing8internal14GTestMutexLockD2Ev(ptr noundef nonnull align 8 dereferenceable(8) %5) #3
  call void @llvm.lifetime.end.p0(i64 8, ptr %5) #3
  %9 = load ptr, ptr %4, align 8, !tbaa !79
  call void @_ZN7testing4Mock8RegisterEPKvPNS_8internal25UntypedFunctionMockerBaseE(ptr noundef %9, ptr noundef %6)
  ret void
}