; Function Attrs: mustprogress uwtable
define dso_local void @_ZN7testing8internal25UntypedFunctionMockerBase13RegisterOwnerEPKv(ptr noundef nonnull align 8 dereferenceable(72) initializes((8, 16)) %0, ptr noundef %1) local_unnamed_addr #3 align 2 personality ptr @__gxx_personality_v0 {
  tail call void @_ZN7testing8internal9MutexBase4LockEv(ptr noundef nonnull align 8 dereferenceable(56) @_ZN7testing8internal13g_gmock_mutexE)
  %3 = getelementptr inbounds nuw i8, ptr %0, i64 8
  store ptr %1, ptr %3, align 8, !tbaa !1938
  invoke void @_ZN7testing8internal9MutexBase6UnlockEv(ptr noundef nonnull align 8 dereferenceable(56) @_ZN7testing8internal13g_gmock_mutexE)
          to label %_ZN7testing8internal14GTestMutexLockD2Ev.exit unwind label %4

4:                                                ; preds = %2
  %5 = landingpad { ptr, i32 }
          catch ptr null
  %6 = extractvalue { ptr, i32 } %5, 0
  tail call void @__clang_call_terminate(ptr %6) #62
  unreachable

_ZN7testing8internal14GTestMutexLockD2Ev.exit:    ; preds = %2
  tail call void @_ZN7testing4Mock8RegisterEPKvPNS_8internal25UntypedFunctionMockerBaseE(ptr noundef %1, ptr noundef nonnull %0)
  ret void
}